; Function Attrs: mustprogress uwtable
define void @unumf_formatDecimal_77(ptr noundef %0, ptr noundef %1, i32 noundef %2, ptr noundef %3, ptr noundef %4) local_unnamed_addr #1 {
  %6 = load i32, ptr %4, align 4, !tbaa !13
  %7 = icmp slt i32 %6, 1
  br i1 %7, label %8, label %_ZN6icu_7713IcuCApiHelperI16UFormattedNumberNS_6number4impl20UFormattedNumberImplELi1178881536EE8validateEPS1_R10UErrorCode.exit.thread

8:                                                ; preds = %5
  %9 = icmp eq ptr %0, null
  br i1 %9, label %.sink.split.i, label %10

10:                                               ; preds = %8
  %11 = load i32, ptr %0, align 4, !tbaa !51
  %.not9.i = icmp eq i32 %11, 1313231360
  br i1 %.not9.i, label %_ZN6icu_7713IcuCApiHelperI16UNumberFormatterNS_6number4impl20UNumberFormatterDataELi1313231360EE8validateEPKS1_R10UErrorCode.exit, label %.sink.split.i

.sink.split.i:                                    ; preds = %10, %8
  %.sink.i = phi i32 [ 1, %8 ], [ 3, %10 ]
  store i32 %.sink.i, ptr %4, align 4, !tbaa !13
  br label %_ZN6icu_7713IcuCApiHelperI16UFormattedNumberNS_6number4impl20UFormattedNumberImplELi1178881536EE8validateEPS1_R10UErrorCode.exit.thread

_ZN6icu_7713IcuCApiHelperI16UNumberFormatterNS_6number4impl20UNumberFormatterDataELi1313231360EE8validateEPKS1_R10UErrorCode.exit: ; preds = %10
  %12 = icmp eq ptr %3, null
  br i1 %12, label %.sink.split.i.i, label %13

13:                                               ; preds = %_ZN6icu_7713IcuCApiHelperI16UNumberFormatterNS_6number4impl20UNumberFormatterDataELi1313231360EE8validateEPKS1_R10UErrorCode.exit
  %14 = getelementptr inbounds nuw i8, ptr %3, i64 16
  %15 = load i32, ptr %14, align 4, !tbaa !20
  %.not9.i.i = icmp eq i32 %15, 1178881536
  br i1 %.not9.i.i, label %_ZN6icu_7713IcuCApiHelperI16UFormattedNumberNS_6number4impl20UFormattedNumberImplELi1178881536EE8validateEPS1_R10UErrorCode.exit, label %.sink.split.i.i

.sink.split.i.i:                                  ; preds = %13, %_ZN6icu_7713IcuCApiHelperI16UNumberFormatterNS_6number4impl20UNumberFormatterDataELi1313231360EE8validateEPKS1_R10UErrorCode.exit
  %.sink.i.i = phi i32 [ 1, %_ZN6icu_7713IcuCApiHelperI16UNumberFormatterNS_6number4impl20UNumberFormatterDataELi1313231360EE8validateEPKS1_R10UErrorCode.exit ], [ 3, %13 ]
  store i32 %.sink.i.i, ptr %4, align 4, !tbaa !13
  br label %_ZN6icu_7713IcuCApiHelperI16UFormattedNumberNS_6number4impl20UFormattedNumberImplELi1178881536EE8validateEPS1_R10UErrorCode.exit.thread

_ZN6icu_7713IcuCApiHelperI16UFormattedNumberNS_6number4impl20UFormattedNumberImplELi1178881536EE8validateEPS1_R10UErrorCode.exit: ; preds = %13
  %16 = getelementptr inbounds nuw i8, ptr %3, i64 48
  tail call void @_ZN6icu_7731FormattedValueStringBuilderImpl11resetStringEv(ptr noundef nonnull align 8 dereferenceable(300) %16)
  %17 = getelementptr inbounds nuw i8, ptr %3, i64 352
  tail call void @_ZN6icu_776number4impl15DecimalQuantity5clearEv(ptr noundef nonnull align 8 dereferenceable(66) %17)
  %18 = tail call noundef nonnull align 8 dereferenceable(66) ptr @_ZN6icu_776number4impl15DecimalQuantity14setToDecNumberENS_11StringPieceER10UErrorCode(ptr noundef nonnull align 8 dereferenceable(66) %17, ptr %1, i32 %2, ptr noundef nonnull align 4 dereferenceable(4) %4)
  %19 = load i32, ptr %4, align 4, !tbaa !13
  %20 = icmp slt i32 %19, 1
  br i1 %20, label %21, label %_ZN6icu_7713IcuCApiHelperI16UFormattedNumberNS_6number4impl20UFormattedNumberImplELi1178881536EE8validateEPS1_R10UErrorCode.exit.thread

21:                                               ; preds = %_ZN6icu_7713IcuCApiHelperI16UFormattedNumberNS_6number4impl20UFormattedNumberImplELi1178881536EE8validateEPS1_R10UErrorCode.exit
  %22 = getelementptr inbounds nuw i8, ptr %0, i64 8
  tail call void @_ZNK6icu_776number24LocalizedNumberFormatter10formatImplEPNS0_4impl20UFormattedNumberDataER10UErrorCode(ptr noundef nonnull align 8 dereferenceable(496) %22, ptr noundef nonnull %16, ptr noundef nonnull align 4 dereferenceable(4) %4)
  br label %_ZN6icu_7713IcuCApiHelperI16UFormattedNumberNS_6number4impl20UFormattedNumberImplELi1178881536EE8validateEPS1_R10UErrorCode.exit.thread

_ZN6icu_7713IcuCApiHelperI16UFormattedNumberNS_6number4impl20UFormattedNumberImplELi1178881536EE8validateEPS1_R10UErrorCode.exit.thread: ; preds = %.sink.split.i, %5, %.sink.split.i.i, %_ZN6icu_7713IcuCApiHelperI16UFormattedNumberNS_6number4impl20UFormattedNumberImplELi1178881536EE8validateEPS1_R10UErrorCode.exit, %21
  ret void
}